(lp0
(lp1
S'1 Ave'
p2
aS'110 St'
p3
aS'Green'
p4
aa(lp5
S'1 Ave'
p6
aS'110 St'
p7
ag4
aa(lp8
S'1 Ave'
p9
aS'124 St'
p10
ag4
aa(lp11
S'1 Ave'
p12
aS'124 St'
p13
ag4
aa(lp14
S'1 Ave'
p15
aS'23 St'
p16
ag4
aa(lp17
S'1 Ave'
p18
aS'23 St'
p19
ag4
aa(lp20
S'1 Ave'
p21
aS'42 St'
p22
aS'Red'
p23
aa(lp24
S'1 Ave'
p25
aS'42 St'
p26
ag23
aa(lp27
S'1 Ave'
p28
aS'79 St'
p29
ag4
aa(lp30
S'1 Ave'
p31
aS'79 St'
p32
ag4
aa(lp33
S'1 Ave'
p34
aS'86 St'
p35
ag23
aa(lp36
S'1 Ave'
p37
aS'86 St'
p38
ag23
aa(lp39
S'1 Ave'
p40
aS'96 St'
p41
ag4
aa(lp42
S'1 Ave'
p43
aS'96 St'
p44
ag4
aa(lp45
S'1 Ave'
p46
aS'E 14 St'
p47
ag4
aa(lp48
S'1 Ave'
p49
aS'E 14 St'
p50
ag4
aa(lp51
S'1 Ave and 34 '
p52
aS' Ave and 34 St'
p53
ag23
aa(lp54
S'1 Ave and 34 '
p55
aS' Ave and 34 St'
p56
ag4
aa(lp57
S'11 Ave'
p58
aS'34 ST'
p59
ag23
aa(lp60
S'11 Ave'
p61
aS'34 ST'
p62
ag23
aa(lp63
S'11 Ave'
p64
aS'42 St'
p65
ag4
aa(lp66
S'11 Ave'
p67
aS'42 St'
p68
ag4
aa(lp69
S'12 Ave'
p70
aS'14 St'
p71
ag4
aa(lp72
S'12 Ave'
p73
aS'14 St'
p74
ag4
aa(lp75
S'12 Ave'
p76
aS'22 St'
p77
ag4
aa(lp78
S'12 Ave'
p79
aS'22 St'
p80
ag4
aa(lp81
S'12 Ave'
p82
aS'34 St'
p83
ag23
aa(lp84
S'12 Ave'
p85
aS'34 St'
p86
ag23
aa(lp87
S'12 Ave'
p88
aS'42 St'
p89
ag23
aa(lp90
S'12 Ave'
p91
aS'42 St'
p92
ag23
aa(lp93
S'12 Ave'
p94
aS'57 St'
p95
ag4
aa(lp96
S'12 Ave'
p97
aS'57 St'
p98
ag4
aa(lp99
S'2 Ave'
p100
aS'110 St'
p101
ag23
aa(lp102
S'2 Ave'
p103
aS'110 St'
p104
ag23
aa(lp105
S'2 Ave'
p106
aS'125 St'
p107
ag23
aa(lp108
S'2 Ave'
p109
aS'125 St'
p110
ag23
aa(lp111
S'2 Ave'
p112
aS'23 St'
p113
ag23
aa(lp114
S'2 Ave'
p115
aS'23 St'
p116
ag23
aa(lp117
S'2 Ave'
p118
aS'36 St-Midtown Tunnel'
p119
ag23
aa(lp120
S'2 Ave'
p121
aS'36 St-Midtown Tunnel'
p122
ag23
aa(lp123
S'2 Ave'
p124
aS'42 St'
p125
ag4
aa(lp126
S'2 Ave'
p127
aS'42 St'
p128
ag4
aa(lp129
S'2 Ave'
p130
aS'49 St'
p131
ag4
aa(lp132
S'2 Ave'
p133
aS'49 St'
p134
ag4
aa(lp135
S'2 Ave'
p136
aS'49 St'
p137
ag4
aa(lp138
S'2 Ave'
p139
aS'49 St'
p140
ag4
aa(lp141
S'2 Ave'
p142
aS'58 St'
p143
ag4
aa(lp144
S'2 Ave'
p145
aS'58 St'
p146
ag4
aa(lp147
S'2 Ave'
p148
aS'59 St (QBB)'
p149
ag4
aa(lp150
S'2 Ave'
p151
aS'59 St (QBB)'
p152
ag4
aa(lp153
S'207 ST'
p154
aS'9 Ave'
p155
ag4
aa(lp156
S'207 ST'
p157
aS'9 Ave'
p158
ag4
aa(lp159
S'3 Ave'
p160
aS'23 St'
p161
ag4
aa(lp162
S'3 Ave'
p163
aS'23 St'
p164
ag4
aa(lp165
S'3 AVE'
p166
aS'34 ST'
p167
ag4
aa(lp168
S'3 AVE'
p169
aS'34 ST'
p170
ag4
aa(lp171
S'3 Ave'
p172
aS'42 St'
p173
ag4
aa(lp174
S'3 Ave'
p175
aS'42 St'
p176
ag4
aa(lp177
S'3 Ave'
p178
aS'49 St'
p179
ag23
aa(lp180
S'3 Ave'
p181
aS'49 St'
p182
ag23
aa(lp183
S'3 Ave'
p184
aS'57 St'
p185
ag4
aa(lp186
S'3 Ave'
p187
aS'57 St'
p188
ag4
aa(lp189
S'3 Ave'
p190
aS'59 St'
p191
ag23
aa(lp192
S'3 Ave'
p193
aS'59 St'
p194
ag23
aa(lp195
S'5 Ave'
p196
aS'23 St'
p197
ag23
aa(lp198
S'5 Ave'
p199
aS'23 St'
p200
ag23
aa(lp201
S'5 Ave'
p202
aS'34 St'
p203
ag4
aa(lp204
S'5 Ave'
p205
aS'34 St'
p206
ag4
aa(lp207
S'5 Ave'
p208
aS'42 St'
p209
ag4
aa(lp210
S'5 Ave'
p211
aS'42 St'
p212
ag4
aa(lp213
S'5 Ave'
p214
aS'49 St'
p215
ag4
aa(lp216
S'5 Ave'
p217
aS'49 St'
p218
ag4
aa(lp219
S'5 Ave'
p220
aS'57 St'
p221
ag23
aa(lp222
S'5 Ave'
p223
aS'57 St'
p224
ag23
aa(lp225
S'5 Ave'
p226
aS'72 St'
p227
ag23
aa(lp228
S'5 Ave'
p229
aS'72 St'
p230
ag4
aa(lp231
S'6 Ave'
p232
aS'14 St'
p233
ag23
aa(lp234
S'6 Ave'
p235
aS'14 St'
p236
ag23
aa(lp237
S'6 Ave'
p238
aS'23 St'
p239
ag4
aa(lp240
S'6 Ave'
p241
aS'23 St'
p242
ag4
aa(lp243
S'6 Ave'
p244
aS'34 St'
p245
ag4
aa(lp246
S'6 Ave'
p247
aS'34 St'
p248
ag4
aa(lp249
S'6 Ave'
p250
aS'42 St'
p251
ag23
aa(lp252
S'6 Ave'
p253
aS'42 St'
p254
ag23
aa(lp255
S'6 Ave'
p256
aS'49 St'
p257
ag4
aa(lp258
S'6 Ave'
p259
aS'49 St'
p260
ag4
aa(lp261
S'6 Ave'
p262
aS'57 St'
p263
ag23
aa(lp264
S'6 Ave'
p265
aS'57 St'
p266
ag23
aa(lp267
S'6 Ave'
p268
aS'58 St'
p269
ag23
aa(lp270
S'6 Ave'
p271
aS'58 St'
p272
ag23
aa(lp273
S'6 Ave'
p274
aS'West Houston St'
p275
ag4
aa(lp276
S'6 Ave'
p277
aS'West Houston St'
p278
ag4
aa(lp279
S'7 Ave'
p280
aS'145 St'
p281
ag4
aa(lp282
S'7 Ave'
p283
aS'145 St'
p284
ag4
aa(lp285
S'7 Ave'
p286
aS'23St'
p287
ag23
aa(lp288
S'7 Ave'
p289
aS'23St'
p290
ag23
aa(lp291
S'7 Ave'
p292
aS'34 St'
p293
ag23
aa(lp294
S'7 Ave'
p295
aS'34 St'
p296
ag23
aa(lp297
S'7 Ave'
p298
aS'49 St'
p299
ag23
aa(lp300
S'7 Ave'
p301
aS'49 St'
p302
ag23
aa(lp303
S'7 Ave'
p304
aS'57 St'
p305
ag4
aa(lp306
S'7 Ave'
p307
aS'57 St'
p308
ag4
aa(lp309
S'8 Ave'
p310
aS'14 St'
p311
ag23
aa(lp312
S'8 Ave'
p313
aS'14 St'
p314
ag23
aa(lp315
S'8 Ave'
p316
aS'34 St'
p317
ag23
aa(lp318
S'8 Ave'
p319
aS'34 St'
p320
ag23
aa(lp321
S'8 Ave'
p322
aS'42 St'
p323
ag4
aa(lp324
S'8 Ave'
p325
aS'42 St'
p326
ag4
aa(lp327
S'8 Ave'
p328
aS'49 St'
p329
ag23
aa(lp330
S'8 Ave'
p331
aS'49 St'
p332
ag23
aa(lp333
S'8 Ave'
p334
aS'Columbus Cr South'
p335
ag4
aa(lp336
S'8 Ave'
p337
aS'Columbus Cr South'
p338
ag4
aa(lp339
S'8th Ave'
p340
aS'23 St'
p341
ag4
aa(lp342
S'8th Ave'
p343
aS'23 St'
p344
ag4
aa(lp345
S'9 Ave'
p346
aS'23 St'
p347
ag4
aa(lp348
S'9 Ave'
p349
aS'23 St'
p350
ag4
aa(lp351
S'9 Ave'
p352
aS'30 St'
p353
ag4
aa(lp354
S'9 Ave'
p355
aS'30 St'
p356
ag4
aa(lp357
S'9 Ave'
p358
aS'34 St'
p359
ag4
aa(lp360
S'9 Ave'
p361
aS'34 St'
p362
ag4
aa(lp363
S'9 Ave'
p364
aS'37 St'
p365
ag4
aa(lp366
S'9 Ave'
p367
aS'37 St'
p368
ag4
aa(lp369
S'9 Ave'
p370
aS'42 St'
p371
aS'Insufficient Data'
p372
aa(lp373
S'9 Ave'
p374
aS'42 St'
p375
ag372
aa(lp376
S'9 Ave'
p377
aS'48 St'
p378
ag23
aa(lp379
S'9 Ave'
p380
aS'48 St'
p381
ag23
aa(lp382
S'9 Ave'
p383
aS'49 St'
p384
ag23
aa(lp385
S'9 Ave'
p386
aS'49 St'
p387
ag23
aa(lp388
S'9 Ave'
p389
aS'57 St'
p390
ag23
aa(lp391
S'9 Ave'
p392
aS'57 St'
p393
ag23
aa(lp394
S'Amsterdam'
p395
aS'178 St'
p396
ag4
aa(lp397
S'Amsterdam'
p398
aS'178 St'
p399
ag4
aa(lp400
S'Amsterdam'
p401
aS'72 St'
p402
ag23
aa(lp403
S'Amsterdam'
p404
aS'72 St'
p405
ag4
aa(lp406
S'Amsterdam'
p407
aS'86 St'
p408
ag23
aa(lp409
S'Amsterdam'
p410
aS'86 St'
p411
ag23
aa(lp412
S'Amsterdam Ave'
p413
aS'125 St'
p414
ag23
aa(lp415
S'Amsterdam Ave'
p416
aS'125 St'
p417
ag23
aa(lp418
S'Amsterdam Ave'
p419
aS'60 St'
p420
ag4
aa(lp421
S'Amsterdam Ave'
p422
aS'60 St'
p423
ag4
aa(lp424
S'Baxter St'
p425
aS'Canal Street'
p426
ag372
aa(lp427
S'Baxter St'
p428
aS'Canal Street'
p429
ag372
aa(lp430
S'Broadway'
p431
aS'125 St'
p432
ag4
aa(lp433
S'Broadway'
p434
aS'125 St'
p435
ag4
aa(lp436
S'Broadway'
p437
aS'169 Street'
p438
ag372
aa(lp439
S'Broadway'
p440
aS'169 Street'
p441
ag372
aa(lp442
S'Broadway'
p443
aS'42 St'
p444
ag4
aa(lp445
S'Broadway'
p446
aS'42 St'
p447
ag4
aa(lp448
S'Broadway'
p449
aS'46 Street'
p450
ag4
aa(lp451
S'Broadway'
p452
aS'46 Street'
p453
ag4
aa(lp454
S'Broadway'
p455
aS'51 St'
p456
ag372
aa(lp457
S'Broadway'
p458
aS'51 St'
p459
ag372
aa(lp460
S'Broadway'
p461
aS'96 St'
p462
ag4
aa(lp463
S'Broadway'
p464
aS'96 St'
p465
ag4
aa(lp466
S'Broadway'
p467
aS'Chambers St'
p468
ag23
aa(lp469
S'Broadway'
p470
aS'Chambers St'
p471
ag23
aa(lp472
S'Brooklyn Battery Tunnel'
p473
aS'West Street'
p474
ag23
aa(lp475
S'Brooklyn Battery Tunnel'
p476
aS'West Street'
p477
ag23
aa(lp478
S'Brooklyn Bridge - Ped Walk W'
p479
aS'rooklyn Bridge - Ped Walk Way'
p480
ag4
aa(lp481
S'Brooklyn Bridge - Ped Walk W'
p482
aS'rooklyn Bridge - Ped Walk Way'
p483
ag4
aa(lp484
S'Brooklyn Bridge'
p485
aS'Centre Street'
p486
ag4
aa(lp487
S'Brooklyn Bridge'
p488
aS'Centre Street'
p489
ag4
aa(lp490
S'Canal Street'
p491
aS'Allen Street'
p492
ag23
aa(lp493
S'Canal Street'
p494
aS'Allen Street'
p495
ag23
aa(lp496
S'Canal Street'
p497
aS'Chrystie Street'
p498
ag23
aa(lp499
S'Canal Street'
p500
aS'Chrystie Street'
p501
ag23
aa(lp502
S'Central Park S'
p503
aS'Columbus Cr'
p504
ag4
aa(lp505
S'Central Park S'
p506
aS'Columbus Cr'
p507
ag4
aa(lp508
S'Church Street'
p509
aS'Vesey'
p510
ag4
aa(lp511
S'Church Street'
p512
aS'Vesey'
p513
ag4
aa(lp514
S'Columbus Ave'
p515
aS'67 St'
p516
ag4
aa(lp517
S'Columbus Ave'
p518
aS'67 St'
p519
ag4
aa(lp520
S'Columbus St'
p521
aS'65 St'
p522
ag4
aa(lp523
S'Columbus St'
p524
aS'65 St'
p525
ag4
aa(lp526
S'CPW'
p527
aS'96 St'
p528
ag4
aa(lp529
S'CPW'
p530
aS'96 St'
p531
ag4
aa(lp532
S'Dyer'
p533
aS'42 Street'
p534
ag23
aa(lp535
S'Dyer'
p536
aS'42 Street'
p537
ag23
aa(lp538
S'E 57 St'
p539
aS'QBB'
p540
ag4
aa(lp541
S'E 57 St'
p542
aS'QBB'
p543
ag4
aa(lp544
S'E 63 St'
p545
aS'QBB'
p546
ag4
aa(lp547
S'E 63 St'
p548
aS'QBB'
p549
ag4
aa(lp550
S'East Houston St'
p551
aS'Ave B'
p552
ag4
aa(lp553
S'East Houston St'
p554
aS'Ave B'
p555
ag4
aa(lp556
S'East Houston St'
p557
aS'Ave D'
p558
ag23
aa(lp559
S'East Houston St'
p560
aS'Ave D'
p561
ag23
aa(lp562
S'FDR'
p563
aS'48 St'
p564
ag23
aa(lp565
S'FDR'
p566
aS'48 St'
p567
ag23
aa(lp568
S'FDR'
p569
aS'E 127 St'
p570
ag4
aa(lp571
S'FDR'
p572
aS'E 127 St'
p573
ag4
aa(lp574
S'FDR'
p575
aS'E 53 St'
p576
ag4
aa(lp577
S'FDR'
p578
aS'E 53 St'
p579
ag4
aa(lp580
S'FDR'
p581
aS'E 6 St'
p582
ag23
aa(lp583
S'FDR'
p584
aS'E 6 St'
p585
ag23
aa(lp586
S'FDR'
p587
aS'Grand St'
p588
ag23
aa(lp589
S'FDR'
p590
aS'Grand St'
p591
ag23
aa(lp592
S'FDR'
p593
aS'Jackson St'
p594
ag23
aa(lp595
S'FDR'
p596
aS'Jackson St'
p597
ag23
aa(lp598
S'FDR Dr'
p599
aS'111 ST'
p600
ag4
aa(lp601
S'FDR Dr'
p602
aS'111 ST'
p603
ag4
aa(lp604
S'FDR Dr'
p605
aS'155 Street'
p606
ag23
aa(lp607
S'FDR Dr'
p608
aS'155 Street'
p609
ag23
aa(lp610
S'FDR Dr'
p611
aS'23 St'
p612
ag4
aa(lp613
S'FDR Dr'
p614
aS'23 St'
p615
ag4
aa(lp616
S'FDR Dr'
p617
aS'38 St'
p618
ag4
aa(lp619
S'FDR Dr'
p620
aS'38 St'
p621
ag23
aa(lp622
S'FDR Dr'
p623
aS'73 St'
p624
ag23
aa(lp625
S'FDR Dr'
p626
aS'73 St'
p627
ag23
aa(lp628
S'FDR Dr'
p629
aS'79 St'
p630
ag23
aa(lp631
S'FDR Dr'
p632
aS'79 St'
p633
ag23
aa(lp634
S'FDR Dr'
p635
aS'90 St'
p636
ag372
aa(lp637
S'FDR Dr'
p638
aS'90 St'
p639
ag372
aa(lp640
S'FDR Dr'
p641
aS'96 Street'
p642
ag23
aa(lp643
S'FDR Dr'
p644
aS'96 Street'
p645
ag23
aa(lp646
S'FDR Dr'
p647
aS'Brooklyn Bridge Exit NB'
p648
ag23
aa(lp649
S'FDR Dr'
p650
aS'Brooklyn Bridge Exit NB'
p651
ag23
aa(lp652
S'FDR Dr'
p653
aS'Brooklyn Bridge Exit SB'
p654
ag372
aa(lp655
S'FDR Dr'
p656
aS'Brooklyn Bridge Exit SB'
p657
ag4
aa(lp658
S'FDR Dr'
p659
aS'Catherine Street'
p660
ag23
aa(lp661
S'FDR Dr'
p662
aS'Catherine Street'
p663
ag23
aa(lp664
S'FDR Dr'
p665
aS'Old Slip'
p666
ag4
aa(lp667
S'FDR Dr'
p668
aS'Old Slip'
p669
ag4
aa(lp670
S'Ft Washington'
p671
aS'179 St'
p672
ag4
aa(lp673
S'Ft Washington'
p674
aS'179 St'
p675
ag4
aa(lp676
S'Ft Washington Ave'
p677
aS'178 St'
p678
ag23
aa(lp679
S'Ft Washington Ave'
p680
aS'178 St'
p681
ag23
aa(lp682
S'Grand St'
p683
aS'Allen St'
p684
ag23
aa(lp685
S'Grand St'
p686
aS'Allen St'
p687
ag23
aa(lp688
S'Grand St'
p689
aS'Broadway'
p690
ag4
aa(lp691
S'Grand St'
p692
aS'Broadway'
p693
ag4
aa(lp694
S'Grand St'
p695
aS'Essex St'
p696
ag23
aa(lp697
S'Grand St'
p698
aS'Essex St'
p699
ag23
aa(lp700
S'Greenwich St'
p701
aS'Morris St'
p702
ag23
aa(lp703
S'Greenwich St'
p704
aS'Morris St'
p705
ag23
aa(lp706
S'Henry Hudson'
p707
aS'137 St'
p708
ag23
aa(lp709
S'Henry Hudson'
p710
aS'137 St'
p711
ag23
aa(lp712
S'Henry Hudson'
p713
aS'158 St'
p714
ag4
aa(lp715
S'Henry Hudson'
p716
aS'158 St'
p717
ag4
aa(lp718
S'Henry Hudson'
p719
aS'70 St'
p720
ag4
aa(lp721
S'Henry Hudson'
p722
aS'70 St'
p723
ag4
aa(lp724
S'Henry Hudson'
p725
aS'South Bound'
p726
ag23
aa(lp727
S'Henry Hudson'
p728
aS'South Bound'
p729
ag23
aa(lp730
S'Henry Hudson Pkwy'
p731
aS'125 St'
p732
ag4
aa(lp733
S'Henry Hudson Pkwy'
p734
aS'125 St'
p735
ag4
aa(lp736
S'Henry Hudson Pkwy'
p737
aS'96 St'
p738
ag4
aa(lp739
S'Henry Hudson Pkwy'
p740
aS'96 St'
p741
ag4
aa(lp742
S'Holland Tunn'
p743
aS'olland Tunnel'
p744
ag23
aa(lp745
S'Holland Tunn'
p746
aS'olland Tunnel'
p747
ag23
aa(lp748
S'Houston St'
p749
aS'Bowery St'
p750
ag4
aa(lp751
S'Houston St'
p752
aS'Bowery St'
p753
ag4
aa(lp754
S'Houston St'
p755
aS'Broadway'
p756
ag4
aa(lp757
S'Houston St'
p758
aS'Broadway'
p759
ag4
aa(lp760
S'Houston St'
p761
aS'Christies St'
p762
ag23
aa(lp763
S'Houston St'
p764
aS'Christies St'
p765
ag23
aa(lp766
S'Houston St'
p767
aS'Lafeyette St'
p768
ag4
aa(lp769
S'Houston St'
p770
aS'Lafeyette St'
p771
ag4
aa(lp772
S'Lenox Ave'
p773
aS'125 St'
p774
ag4
aa(lp775
S'Lenox Ave'
p776
aS'125 St'
p777
ag4
aa(lp778
S'Lenox Ave'
p779
aS'135 St'
p780
ag23
aa(lp781
S'Lenox Ave'
p782
aS'135 St'
p783
ag23
aa(lp784
S'Lexington Ave'
p785
aS'23 St'
p786
ag23
aa(lp787
S'Lexington Ave'
p788
aS'23 St'
p789
ag23
aa(lp790
S'Lexington Ave'
p791
aS'34 St'
p792
ag23
aa(lp793
S'Lexington Ave'
p794
aS'34 St'
p795
ag23
aa(lp796
S'Lexington Ave'
p797
aS'42 St'
p798
ag4
aa(lp799
S'Lexington Ave'
p800
aS'42 St'
p801
ag4
aa(lp802
S'Lexington Ave'
p803
aS'49 St'
p804
ag4
aa(lp805
S'Lexington Ave'
p806
aS'49 St'
p807
ag4
aa(lp808
S'Lexington Ave'
p809
aS'57 ST'
p810
ag23
aa(lp811
S'Lexington Ave'
p812
aS'57 ST'
p813
ag23
aa(lp814
S'Lexington Ave'
p815
aS'72 St'
p816
ag4
aa(lp817
S'Lexington Ave'
p818
aS'72 St'
p819
ag4
aa(lp820
S'MADISON'
p821
aS'34 ST'
p822
ag4
aa(lp823
S'MADISON'
p824
aS'34 ST'
p825
ag4
aa(lp826
S'MADISON'
p827
aS'57 ST'
p828
ag4
aa(lp829
S'MADISON'
p830
aS'57 ST'
p831
ag4
aa(lp832
S'Madison Ave'
p833
aS'42 St'
p834
ag4
aa(lp835
S'Madison Ave'
p836
aS'42 St'
p837
ag4
aa(lp838
S'Madison Ave'
p839
aS'49 St'
p840
ag23
aa(lp841
S'Madison Ave'
p842
aS'49 St'
p843
ag23
aa(lp844
S'Madison Ave'
p845
aS'96 St'
p846
ag4
aa(lp847
S'Madison Ave'
p848
aS'96 St'
p849
ag4
aa(lp850
S'Manhattan BBT Entran'
p851
aS'anhattan BBT Entrance'
p852
ag372
aa(lp853
S'Manhattan BBT Entran'
p854
aS'anhattan BBT Entrance'
p855
ag372
aa(lp856
S'MHB-20 Mahn S URW'
p857
aS'Anch'
p858
ag23
aa(lp859
S'MHB-20 Mahn S URW'
p860
aS'Anch'
p861
ag23
aa(lp862
S'MHB-25 Manh S URW'
p863
aS'Twr Walkwy'
p864
ag4
aa(lp865
S'MHB-25 Manh S URW'
p866
aS'Twr Walkwy'
p867
ag4
aa(lp868
S'MHB-30'
p869
aS'BRK S URW @ TWR Walk Way'
p870
ag23
aa(lp871
S'MHB-30'
p872
aS'BRK S URW @ TWR Walk Way'
p873
ag23
aa(lp874
S'Montgomergy'
p875
aS'South St'
p876
ag23
aa(lp877
S'Montgomergy'
p878
aS'South St'
p879
ag4
aa(lp880
S'Park Ave'
p881
aS'23 St'
p882
ag4
aa(lp883
S'Park Ave'
p884
aS'23 St'
p885
ag4
aa(lp886
S'Park Ave'
p887
aS'34 St'
p888
ag4
aa(lp889
S'Park Ave'
p890
aS'34 St'
p891
ag4
aa(lp892
S'Park Ave'
p893
aS'57 St'
p894
ag23
aa(lp895
S'Park Ave'
p896
aS'57 St'
p897
ag23
aa(lp898
S'Pearl St'
p899
aS'Dover'
p900
ag4
aa(lp901
S'Pearl St'
p902
aS'Dover'
p903
ag4
aa(lp904
S'Pearl Street'
p905
aS'St. James Pl'
p906
ag23
aa(lp907
S'Pearl Street'
p908
aS'St. James Pl'
p909
ag23
aa(lp910
S'QBB LL CM'
p911
aS'W Channel'
p912
ag372
aa(lp913
S'QBB LL CM'
p914
aS'W Channel'
p915
ag372
aa(lp916
S'QBB NOR'
p917
aS'York Ave'
p918
ag4
aa(lp919
S'QBB NOR'
p920
aS'York Ave'
p921
ag4
aa(lp922
S'QBB SOR'
p923
aS'1 Ave'
p924
ag4
aa(lp925
S'QBB SOR'
p926
aS'1 Ave'
p927
ag4
aa(lp928
S'QBB UL CM'
p929
aS'Roosevelt'
p930
ag23
aa(lp931
S'QBB UL CM'
p932
aS'Roosevelt'
p933
ag23
aa(lp934
S'QBB UL CM'
p935
aS'York Ave'
p936
ag4
aa(lp937
S'QBB UL CM'
p938
aS'York Ave'
p939
ag4
aa(lp940
S'Queens Midtown Tunnel'
p941
aS'Manhattan Side'
p942
ag4
aa(lp943
S'Queens Midtown Tunnel'
p944
aS'Manhattan Side'
p945
ag4
aa(lp946
S'RT. 9A'
p947
aS'N. Moore St'
p948
ag23
aa(lp949
S'RT. 9A'
p950
aS'N. Moore St'
p951
ag23
aa(lp952
S'South St'
p953
aS'Broad St'
p954
ag4
aa(lp955
S'South St'
p956
aS'Broad St'
p957
ag4
aa(lp958
S'South Street'
p959
aS'Pike Street'
p960
ag23
aa(lp961
S'South Street'
p962
aS'Pike Street'
p963
ag23
aa(lp964
S'St Nicholas Ave'
p965
aS'125 St'
p966
ag4
aa(lp967
S'St Nicholas Ave'
p968
aS'125 St'
p969
ag4
aa(lp970
S'St Nicholas Ave'
p971
aS'145 St'
p972
ag23
aa(lp973
S'St Nicholas Ave'
p974
aS'145 St'
p975
ag23
aa(lp976
S'St Nicholas Ave'
p977
aS'181 St'
p978
ag23
aa(lp979
S'St Nicholas Ave'
p980
aS'181 St'
p981
ag23
aa(lp982
S'Sutton Pl'
p983
aS'58 St'
p984
ag23
aa(lp985
S'Sutton Pl'
p986
aS'58 St'
p987
ag23
aa.