(lp0
Vhttp://207.251.86.238/cctv261.jpg
p1
aVhttp://207.251.86.238/cctv261.jpg
p2
aVhttp://207.251.86.238/cctv254.jpg
p3
aVhttp://207.251.86.238/cctv254.jpg
p4
aVhttp://207.251.86.238/cctv253.jpg
p5
aVhttp://207.251.86.238/cctv253.jpg
p6
aVhttp://207.251.86.238/cctv490.jpg
p7
aVhttp://207.251.86.238/cctv490.jpg
p8
aVhttp://207.251.86.238/cctv263.jpg
p9
aVhttp://207.251.86.238/cctv263.jpg
p10
aVhttp://207.251.86.238/cctv644.jpg
p11
aVhttp://207.251.86.238/cctv644.jpg
p12
aVhttp://207.251.86.238/cctv696.jpg
p13
aVhttp://207.251.86.238/cctv696.jpg
p14
aVhttp://207.251.86.238/cctv494.jpg
p15
aVhttp://207.251.86.238/cctv494.jpg
p16
aVhttp://207.251.86.238/cctv200.jpg
p17
aVhttp://207.251.86.238/cctv200.jpg
p18
aVhttp://207.251.86.238/cctv31.jpg
p19
aVhttp://207.251.86.238/cctv31.jpg
p20
aVhttp://207.251.86.238/cctv489.jpg
p21
aVhttp://207.251.86.238/cctv489.jpg
p22
aVhttp://207.251.86.238/cctv488.jpg
p23
aVhttp://207.251.86.238/cctv488.jpg
p24
aVhttp://207.251.86.238/cctv486.jpg
p25
aVhttp://207.251.86.238/cctv486.jpg
p26
aVhttp://207.251.86.238/cctv485.jpg
p27
aVhttp://207.251.86.238/cctv485.jpg
p28
aVhttp://207.251.86.238/cctv484.jpg
p29
aVhttp://207.251.86.238/cctv484.jpg
p30
aVhttp://207.251.86.238/cctv251.jpg
p31
aVhttp://207.251.86.238/cctv251.jpg
p32
aVhttp://207.251.86.238/cctv102.jpg
p33
aVhttp://207.251.86.238/cctv102.jpg
p34
aVhttp://207.251.86.238/cctv699.jpg
p35
aVhttp://207.251.86.238/cctv699.jpg
p36
aVhttp://207.251.86.238/cctv4.jpg
p37
aVhttp://207.251.86.238/cctv4.jpg
p38
aVhttp://207.251.86.238/cctv491.jpg
p39
aVhttp://207.251.86.238/cctv491.jpg
p40
aVhttp://207.251.86.238/cctv258.jpg
p41
aVhttp://207.251.86.238/cctv258.jpg
p42
aVhttp://207.251.86.238/cctv497.jpg
p43
aVhttp://207.251.86.238/cctv497.jpg
p44
aVhttp://207.251.86.238/cctv400.jpg
p45
aVhttp://207.251.86.238/cctv400.jpg
p46
aVhttp://207.251.86.238/cctv203.jpg
p47
aVhttp://207.251.86.238/cctv203.jpg
p48
aVhttp://207.251.86.238/cctv430.jpg
p49
aVhttp://207.251.86.238/cctv430.jpg
p50
aVhttp://207.251.86.238/cctv431.jpg
p51
aVhttp://207.251.86.238/cctv431.jpg
p52
aVhttp://207.251.86.238/cctv290.jpg
p53
aVhttp://207.251.86.238/cctv290.jpg
p54
aVhttp://207.251.86.238/cctv429.jpg
p55
aVhttp://207.251.86.238/cctv429.jpg
p56
aVhttp://207.251.86.238/cctv428.jpg
p57
aVhttp://207.251.86.238/cctv428.jpg
p58
aVhttp://207.251.86.238/cctv432.jpg
p59
aVhttp://207.251.86.238/cctv432.jpg
p60
aVhttp://207.251.86.238/cctv7.jpg
p61
aVhttp://207.251.86.238/cctv7.jpg
p62
aVhttp://207.251.86.238/cctv305.jpg
p63
aVhttp://207.251.86.238/cctv305.jpg
p64
aVhttp://207.251.86.238/cctv466.jpg
p65
aVhttp://207.251.86.238/cctv466.jpg
p66
aVhttp://207.251.86.238/cctv8.jpg
p67
aVhttp://207.251.86.238/cctv8.jpg
p68
aVhttp://207.251.86.238/cctv299.jpg
p69
aVhttp://207.251.86.238/cctv299.jpg
p70
aVhttp://207.251.86.238/cctv465.jpg
p71
aVhttp://207.251.86.238/cctv465.jpg
p72
aVhttp://207.251.86.238/cctv446.jpg
p73
aVhttp://207.251.86.238/cctv446.jpg
p74
aVhttp://207.251.86.238/cctv448.jpg
p75
aVhttp://207.251.86.238/cctv448.jpg
p76
aVhttp://207.251.86.238/cctv9.jpg
p77
aVhttp://207.251.86.238/cctv9.jpg
p78
aVhttp://207.251.86.238/cctv12.jpg
p79
aVhttp://207.251.86.238/cctv12.jpg
p80
aVhttp://207.251.86.238/cctv10.jpg
p81
aVhttp://207.251.86.238/cctv10.jpg
p82
aVhttp://207.251.86.238/cctv304.jpg
p83
aVhttp://207.251.86.238/cctv304.jpg
p84
aVhttp://207.251.86.238/cctv401.jpg
p85
aVhttp://207.251.86.238/cctv401.jpg
p86
aVhttp://207.251.86.238/cctv666.jpg
p87
aVhttp://207.251.86.238/cctv666.jpg
p88
aVhttp://207.251.86.238/cctv471.jpg
p89
aVhttp://207.251.86.238/cctv471.jpg
p90
aVhttp://207.251.86.238/cctv447.jpg
p91
aVhttp://207.251.86.238/cctv447.jpg
p92
aVhttp://207.251.86.238/cctv440.jpg
p93
aVhttp://207.251.86.238/cctv440.jpg
p94
aVhttp://207.251.86.238/cctv439.jpg
p95
aVhttp://207.251.86.238/cctv439.jpg
p96
aVhttp://207.251.86.238/cctv444.jpg
p97
aVhttp://207.251.86.238/cctv444.jpg
p98
aVhttp://207.251.86.238/cctv443.jpg
p99
aVhttp://207.251.86.238/cctv443.jpg
p100
aVhttp://207.251.86.238/cctv19.jpg
p101
aVhttp://207.251.86.238/cctv19.jpg
p102
aVhttp://207.251.86.238/cctv20.jpg
p103
aVhttp://207.251.86.238/cctv20.jpg
p104
aVhttp://207.251.86.238/cctv437.jpg
p105
aVhttp://207.251.86.238/cctv437.jpg
p106
aVhttp://207.251.86.238/cctv18.jpg
p107
aVhttp://207.251.86.238/cctv18.jpg
p108
aVhttp://207.251.86.238/cctv441.jpg
p109
aVhttp://207.251.86.238/cctv441.jpg
p110
aVhttp://207.251.86.238/cctv355.jpg
p111
aVhttp://207.251.86.238/cctv355.jpg
p112
aVhttp://207.251.86.238/cctv354.jpg
p113
aVhttp://207.251.86.238/cctv354.jpg
p114
aVhttp://207.251.86.238/cctv352.jpg
p115
aVhttp://207.251.86.238/cctv352.jpg
p116
aVhttp://207.251.86.238/cctv353.jpg
p117
aVhttp://207.251.86.238/cctv353.jpg
p118
aVhttp://207.251.86.238/cctv456.jpg
p119
aVhttp://207.251.86.238/cctv456.jpg
p120
aVhttp://207.251.86.238/cctv350.jpg
p121
aVhttp://207.251.86.238/cctv350.jpg
p122
aVhttp://207.251.86.238/cctv349.jpg
p123
aVhttp://207.251.86.238/cctv349.jpg
p124
aVhttp://207.251.86.238/cctv112.jpg
p125
aVhttp://207.251.86.238/cctv112.jpg
p126
aVhttp://207.251.86.238/cctv468.jpg
p127
aVhttp://207.251.86.238/cctv468.jpg
p128
aVhttp://207.251.86.238/cctv689.jpg
p129
aVhttp://207.251.86.238/cctv689.jpg
p130
aVhttp://207.251.86.238/cctv455.jpg
p131
aVhttp://207.251.86.238/cctv455.jpg
p132
aVhttp://207.251.86.238/cctv11.jpg
p133
aVhttp://207.251.86.238/cctv11.jpg
p134
aVhttp://207.251.86.238/cctv690.jpg
p135
aVhttp://207.251.86.238/cctv690.jpg
p136
aVhttp://207.251.86.238/cctv65.jpg
p137
aVhttp://207.251.86.238/cctv65.jpg
p138
aVhttp://207.251.86.238/cctv403.jpg
p139
aVhttp://207.251.86.238/cctv403.jpg
p140
aVhttp://207.251.86.238/cctv438.jpg
p141
aVhttp://207.251.86.238/cctv438.jpg
p142
aVhttp://207.251.86.238/cctv687.jpg
p143
aVhttp://207.251.86.238/cctv687.jpg
p144
aVhttp://207.251.86.238/cctv337.jpg
p145
aVhttp://207.251.86.238/cctv337.jpg
p146
aVhttp://webcam.mta.info/btimg/172.28.208.8/1/image.jpg
p147
aVhttp://webcam.mta.info/btimg/172.28.208.8/1/image.jpg
p148
aVhttp://207.251.86.238/cctv348.jpg
p149
aVhttp://207.251.86.238/cctv348.jpg
p150
aVhttp://207.251.86.238/cctv14.jpg
p151
aVhttp://207.251.86.238/cctv14.jpg
p152
aVhttp://207.251.86.238/cctv325.jpg
p153
aVhttp://207.251.86.238/cctv325.jpg
p154
aVhttp://207.251.86.238/cctv324.jpg
p155
aVhttp://207.251.86.238/cctv324.jpg
p156
aVhttp://207.251.86.238/cctv5.jpg
p157
aVhttp://207.251.86.238/cctv5.jpg
p158
aVhttp://207.251.86.238/cctv2.jpg
p159
aVhttp://207.251.86.238/cctv2.jpg
p160
aVhttp://207.251.86.238/cctv454.jpg
p161
aVhttp://207.251.86.238/cctv454.jpg
p162
aVhttp://207.251.86.238/cctv445.jpg
p163
aVhttp://207.251.86.238/cctv445.jpg
p164
aVhttp://207.251.86.238/cctv464.jpg
p165
aVhttp://207.251.86.238/cctv464.jpg
p166
aVhttp://207.251.86.238/cctv21.jpg
p167
aVhttp://207.251.86.238/cctv21.jpg
p168
aVhttp://207.251.86.238/cctv15.jpg
p169
aVhttp://207.251.86.238/cctv15.jpg
p170
aVhttp://207.251.86.238/cctv16.jpg
p171
aVhttp://207.251.86.238/cctv16.jpg
p172
aVhttp://207.251.86.238/cctv697.jpg
p173
aVhttp://207.251.86.238/cctv697.jpg
p174
aVhttp://207.251.86.238/cctv698.jpg
p175
aVhttp://207.251.86.238/cctv698.jpg
p176
aVhttp://207.251.86.238/cctv683.jpg
p177
aVhttp://207.251.86.238/cctv683.jpg
p178
aVhttp://207.251.86.238/cctv682.jpg
p179
aVhttp://207.251.86.238/cctv682.jpg
p180
aVhttp://207.251.86.238/cctv681.jpg
p181
aVhttp://207.251.86.238/cctv681.jpg
p182
aVhttp://207.251.86.238/cctv680.jpg
p183
aVhttp://207.251.86.238/cctv680.jpg
p184
aVhttp://207.251.86.238/cctv684.jpg
p185
aVhttp://207.251.86.238/cctv684.jpg
p186
aVhttp://207.251.86.238/cctv166.jpg
p187
aVhttp://207.251.86.238/cctv166.jpg
p188
aVhttp://207.251.86.238/cctv640.jpg
p189
aVhttp://207.251.86.238/cctv640.jpg
p190
aVhttp://207.251.86.238/cctv643.jpg
p191
aVhttp://207.251.86.238/cctv643.jpg
p192
aVhttp://207.251.86.238/cctv642.jpg
p193
aVhttp://207.251.86.238/cctv642.jpg
p194
aVhttp://207.251.86.238/cctv25.jpg
p195
aVhttp://207.251.86.238/cctv25.jpg
p196
aVhttp://207.251.86.238/cctv327.jpg
p197
aVhttp://207.251.86.238/cctv327.jpg
p198
aVhttp://207.251.86.238/cctv326.jpg
p199
aVhttp://207.251.86.238/cctv326.jpg
p200
aVhttp://207.251.86.238/cctv22.jpg
p201
aVhttp://207.251.86.238/cctv22.jpg
p202
aVhttp://207.251.86.238/cctv64.jpg
p203
aVhttp://207.251.86.238/cctv64.jpg
p204
aVhttp://207.251.86.238/cctv635.jpg
p205
aVhttp://207.251.86.238/cctv635.jpg
p206
aVhttp://207.251.86.238/cctv481.jpg
p207
aVhttp://207.251.86.238/cctv481.jpg
p208
aVhttp://207.251.86.238/cctv457.jpg
p209
aVhttp://207.251.86.238/cctv457.jpg
p210
aVhttp://207.251.86.238/cctv453.jpg
p211
aVhttp://207.251.86.238/cctv453.jpg
p212
aVhttp://207.251.86.238/cctv500.jpg
p213
aVhttp://207.251.86.238/cctv500.jpg
p214
aVhttp://207.251.86.238/cctv495.jpg
p215
aVhttp://207.251.86.238/cctv495.jpg
p216
aVhttp://webcam.mta.info/btimg/172.28.204.8/1/image.jpg
p217
aVhttp://webcam.mta.info/btimg/172.28.204.8/1/image.jpg
p218
aVhttp://207.251.86.238/cctv188.jpg
p219
aVhttp://207.251.86.238/cctv188.jpg
p220
aVhttp://207.251.86.238/cctv92.jpg
p221
aVhttp://207.251.86.238/cctv92.jpg
p222
aVhttp://207.251.86.238/cctv669.jpg
p223
aVhttp://207.251.86.238/cctv669.jpg
p224
aVhttp://207.251.86.238/cctv671.jpg
p225
aVhttp://207.251.86.238/cctv671.jpg
p226
aVhttp://207.251.86.238/cctv670.jpg
p227
aVhttp://207.251.86.238/cctv670.jpg
p228
aVhttp://207.251.86.238/cctv668.jpg
p229
aVhttp://207.251.86.238/cctv668.jpg
p230
aVhttp://207.251.86.238/cctv472.jpg
p231
aVhttp://207.251.86.238/cctv472.jpg
p232
aVhttp://207.251.86.238/cctv483.jpg
p233
aVhttp://207.251.86.238/cctv483.jpg
p234
aVhttp://207.251.86.238/cctv482.jpg
p235
aVhttp://207.251.86.238/cctv482.jpg
p236
aVhttp://207.251.86.238/cctv303.jpg
p237
aVhttp://207.251.86.238/cctv303.jpg
p238
aVhttp://207.251.86.238/cctv302.jpg
p239
aVhttp://207.251.86.238/cctv302.jpg
p240
aVhttp://207.251.86.238/cctv294.jpg
p241
aVhttp://207.251.86.238/cctv294.jpg
p242
aVhttp://207.251.86.238/cctv296.jpg
p243
aVhttp://207.251.86.238/cctv296.jpg
p244
aVhttp://207.251.86.238/cctv297.jpg
p245
aVhttp://207.251.86.238/cctv297.jpg
p246
aVhttp://207.251.86.238/cctv467.jpg
p247
aVhttp://207.251.86.238/cctv467.jpg
p248
aVhttp://207.251.86.238/cctv470.jpg
p249
aVhttp://207.251.86.238/cctv470.jpg
p250
aVhttp://207.251.86.238/cctv475.jpg
p251
aVhttp://207.251.86.238/cctv475.jpg
p252
aVhttp://207.251.86.238/cctv396.jpg
p253
aVhttp://207.251.86.238/cctv396.jpg
p254
aVhttp://207.251.86.238/cctv338.jpg
p255
aVhttp://207.251.86.238/cctv338.jpg
p256
aVhttp://207.251.86.238/cctv473.jpg
p257
aVhttp://207.251.86.238/cctv473.jpg
p258
aVhttp://207.251.86.238/cctv309.jpg
p259
aVhttp://207.251.86.238/cctv309.jpg
p260
aVhttp://207.251.86.238/cctv492.jpg
p261
aVhttp://207.251.86.238/cctv492.jpg
p262
aVhttp://207.251.86.238/cctv316.jpg
p263
aVhttp://207.251.86.238/cctv316.jpg
p264
aVhttp://207.251.86.238/cctv317.jpg
p265
aVhttp://207.251.86.238/cctv317.jpg
p266
aVhttp://207.251.86.238/cctv412.jpg
p267
aVhttp://207.251.86.238/cctv412.jpg
p268
aVhttp://207.251.86.238/cctv407.jpg
p269
aVhttp://207.251.86.238/cctv407.jpg
p270
aVhttp://207.251.86.238/cctv404.jpg
p271
aVhttp://207.251.86.238/cctv404.jpg
p272
aVhttp://207.251.86.238/cctv413.jpg
p273
aVhttp://207.251.86.238/cctv413.jpg
p274
aVhttp://207.251.86.238/cctv408.jpg
p275
aVhttp://207.251.86.238/cctv408.jpg
p276
aVhttp://207.251.86.238/cctv320.jpg
p277
aVhttp://207.251.86.238/cctv320.jpg
p278
aVhttp://207.251.86.238/cctv210.jpg
p279
aVhttp://207.251.86.238/cctv210.jpg
p280
aVhttp://207.251.86.238/cctv328.jpg
p281
aVhttp://207.251.86.238/cctv328.jpg
p282
aVhttp://207.251.86.238/cctv688.jpg
p283
aVhttp://207.251.86.238/cctv688.jpg
p284
aVhttp://207.251.86.238/cctv476.jpg
p285
aVhttp://207.251.86.238/cctv476.jpg
p286
aVhttp://207.251.86.238/cctv402.jpg
p287
aVhttp://207.251.86.238/cctv402.jpg
p288
aVhttp://webcam.mta.info/btimg/172.28.202.8/1/image.jpg
p289
aVhttp://webcam.mta.info/btimg/172.28.202.8/1/image.jpg
p290
aVhttp://207.251.86.238/cctv474.jpg
p291
aVhttp://207.251.86.238/cctv474.jpg
p292
aVhttp://207.251.86.238/cctv331.jpg
p293
aVhttp://207.251.86.238/cctv331.jpg
p294
aVhttp://207.251.86.238/cctv213.jpg
p295
aVhttp://207.251.86.238/cctv213.jpg
p296
aVhttp://207.251.86.238/cctv212.jpg
p297
aVhttp://207.251.86.238/cctv212.jpg
p298
aVhttp://207.251.86.238/cctv375.jpg
p299
aVhttp://207.251.86.238/cctv375.jpg
p300
aVhttp://207.251.86.238/cctv376.jpg
p301
aVhttp://207.251.86.238/cctv376.jpg
p302
aVhttp://207.251.86.238/cctv377.jpg
p303
aVhttp://207.251.86.238/cctv377.jpg
p304
aVhttp://207.251.86.238/cctv378.jpg
p305
aVhttp://207.251.86.238/cctv378.jpg
p306
aVhttp://207.251.86.238/cctv667.jpg
p307
aVhttp://207.251.86.238/cctv667.jpg
p308
aVhttp://207.251.86.238/cctv665.jpg
p309
aVhttp://207.251.86.238/cctv665.jpg
p310
aVhttp://207.251.86.238/cctv674.jpg
p311
aVhttp://207.251.86.238/cctv674.jpg
p312
aVhttp://207.251.86.238/cctv50.jpg
p313
aVhttp://207.251.86.238/cctv50.jpg
p314
aVhttp://207.251.86.238/cctv189.jpg
p315
aVhttp://207.251.86.238/cctv189.jpg
p316
aVhttp://207.251.86.238/cctv71.jpg
p317
aVhttp://207.251.86.238/cctv71.jpg
p318
aVhttp://207.251.86.238/cctv664.jpg
p319
aVhttp://207.251.86.238/cctv664.jpg
p320
aVhttp://207.251.86.238/cctv90.jpg
p321
aVhttp://207.251.86.238/cctv90.jpg
p322
aVhttp://207.251.86.238/cctv323.jpg
p323
aVhttp://207.251.86.238/cctv323.jpg
p324
aVhttp://207.251.86.238/cctv322.jpg
p325
aVhttp://207.251.86.238/cctv322.jpg
p326
aVhttp://207.251.86.238/cctv321.jpg
p327
aVhttp://207.251.86.238/cctv321.jpg
p328
a.